target datalayout = "e-m:e-p270:32:32-p271:32:32-p272:64:64-i64:64-i128:128-f80:128-n8:16:32:64-S128"
target triple = "x86_64-pc-linux-gnu"

; Function Attrs: inlinehint mustprogress nounwind uwtable
define linkonce_odr noundef double @_ZSt3powIdiEN9__gnu_cxx11__promote_2IT_T0_NS0_9__promoteIS2_Xsr3std12__is_integerIS2_EE7__valueEE6__typeENS4_IS3_Xsr3std12__is_integerIS3_EE7__valueEE6__typeEE6__typeES2_S3_(double noundef %0, i32 noundef %1) #3 comdat {
  %3 = alloca double, align 8
  %4 = alloca i32, align 4
  store double %0, ptr %3, align 8, !tbaa !46
  store i32 %1, ptr %4, align 4, !tbaa !7
  %5 = load double, ptr %3, align 8, !tbaa !46
  %6 = load i32, ptr %4, align 4, !tbaa !7
  %7 = sitofp i32 %6 to double
  %8 = call double @pow(double noundef %5, double noundef %7) #10, !tbaa !7
  ret double %8
}

; Function Attrs: mustprogress uwtable
define noundef double @_ZN10duckdb_hll6hllTauEd(double noundef %0) #2 {
  %2 = alloca double, align 8
  %3 = alloca double, align 8
  %4 = alloca double, align 8
  %5 = alloca double, align 8
  %6 = alloca double, align 8
  store double %0, ptr %3, align 8, !tbaa !46
  %7 = load double, ptr %3, align 8, !tbaa !46
  %8 = fcmp oeq double %7, 0.000000e+00
  br i1 %8, label %12, label %9

9:                                                ; preds = %1
  %10 = load double, ptr %3, align 8, !tbaa !46
  %11 = fcmp oeq double %10, 1.000000e+00
  br i1 %11, label %12, label %13

12:                                               ; preds = %9, %1
  store double 0.000000e+00, ptr %2, align 8
  br label %36

13:                                               ; preds = %9
  call void @llvm.lifetime.start.p0(i64 8, ptr %4) #10
  call void @llvm.lifetime.start.p0(i64 8, ptr %5) #10
  store double 1.000000e+00, ptr %5, align 8, !tbaa !46
  call void @llvm.lifetime.start.p0(i64 8, ptr %6) #10
  %14 = load double, ptr %3, align 8, !tbaa !46
  %15 = fsub double 1.000000e+00, %14
  store double %15, ptr %6, align 8, !tbaa !46
  br label %16

16:                                               ; preds = %29, %13
  %17 = load double, ptr %3, align 8, !tbaa !46
  %18 = call double @sqrt(double noundef %17) #10, !tbaa !7
  store double %18, ptr %3, align 8, !tbaa !46
  %19 = load double, ptr %6, align 8, !tbaa !46
  store double %19, ptr %4, align 8, !tbaa !46
  %20 = load double, ptr %5, align 8, !tbaa !46
  %21 = fmul double %20, 5.000000e-01
  store double %21, ptr %5, align 8, !tbaa !46
  %22 = load double, ptr %3, align 8, !tbaa !46
  %23 = fsub double 1.000000e+00, %22
  %24 = call noundef double @_ZSt3powIdiEN9__gnu_cxx11__promote_2IT_T0_NS0_9__promoteIS2_Xsr3std12__is_integerIS2_EE7__valueEE6__typeENS4_IS3_Xsr3std12__is_integerIS3_EE7__valueEE6__typeEE6__typeES2_S3_(double noundef %23, i32 noundef 2)
  %25 = load double, ptr %5, align 8, !tbaa !46
  %26 = load double, ptr %6, align 8, !tbaa !46
  %27 = fneg double %24
  %28 = call double @llvm.fmuladd.f64(double %27, double %25, double %26)
  store double %28, ptr %6, align 8, !tbaa !46
  br label %29

29:                                               ; preds = %16
  %30 = load double, ptr %4, align 8, !tbaa !46
  %31 = load double, ptr %6, align 8, !tbaa !46
  %32 = fcmp une double %30, %31
  br i1 %32, label %16, label %33, !llvm.loop !49

33:                                               ; preds = %29
  %34 = load double, ptr %6, align 8, !tbaa !46
  %35 = fdiv double %34, 3.000000e+00
  store double %35, ptr %2, align 8
  call void @llvm.lifetime.end.p0(i64 8, ptr %6) #10
  call void @llvm.lifetime.end.p0(i64 8, ptr %5) #10
  call void @llvm.lifetime.end.p0(i64 8, ptr %4) #10
  br label %36

36:                                               ; preds = %33, %12
  %37 = load double, ptr %2, align 8
  ret double %37
}